; Function Attrs: inlinehint nounwind sspstrong uwtable
define internal fastcc i64 @rb_float_new_inline(double noundef %0) unnamed_addr #3 {
  %2 = bitcast double %0 to i64
  %cond = icmp eq i64 %2, 3458764513820540928
  br i1 %cond, label %14, label %3

3:                                                ; preds = %1
  %4 = lshr i64 %2, 60
  %5 = trunc nuw nsw i64 %4 to i32
  %6 = and i32 %5, 7
  %7 = add nsw i32 %6, -3
  %.not7 = icmp ult i32 %7, 2
  br i1 %.not7, label %8, label %12

8:                                                ; preds = %3
  %9 = tail call noundef i64 @llvm.fshl.i64(i64 range(i64 3458764513820540929, 3458764513820540928) %2, i64 range(i64 3458764513820540929, 3458764513820540928) %2, i64 3)
  %10 = and i64 %9, -4
  %11 = or disjoint i64 %10, 2
  br label %16

12:                                               ; preds = %3
  %13 = icmp eq i64 %2, 0
  br i1 %13, label %16, label %14

14:                                               ; preds = %1, %12
  %15 = tail call i64 @rb_float_new_in_heap(double noundef %0) #17
  br label %16

16:                                               ; preds = %12, %14, %8
  %.0 = phi i64 [ %15, %14 ], [ %11, %8 ], [ -9223372036854775806, %12 ]
  ret i64 %.0
}